target datalayout = "e-m:e-p270:32:32-p271:32:32-p272:64:64-i64:64-i128:128-f80:128-n8:16:32:64-S128"
target triple = "x86_64-unknown-linux-gnu"

%"class.std::set.0" = type { %"class.std::_Rb_tree.1" }
%"class.std::_Rb_tree.1" = type { %"struct.std::_Rb_tree<QuantLib::Observer *, QuantLib::Observer *, std::_Identity<QuantLib::Observer *>, std::less<QuantLib::Observer *>>::_Rb_tree_impl" }
%"struct.std::_Rb_tree<QuantLib::Observer *, QuantLib::Observer *, std::_Identity<QuantLib::Observer *>, std::less<QuantLib::Observer *>>::_Rb_tree_impl" = type { [8 x i8], %"struct.std::_Rb_tree_header" }
%"struct.std::_Rb_tree_header" = type { %"struct.std::_Rb_tree_node_base", i64 }
%"struct.std::_Rb_tree_node_base" = type { i32, ptr, ptr, ptr }
%"class.std::set" = type { %"class.std::_Rb_tree" }
%"class.std::_Rb_tree" = type { %"struct.std::_Rb_tree<boost::shared_ptr<QuantLib::Observable>, boost::shared_ptr<QuantLib::Observable>, std::_Identity<boost::shared_ptr<QuantLib::Observable>>, std::less<boost::shared_ptr<QuantLib::Observable>>>::_Rb_tree_impl" }
%"struct.std::_Rb_tree<boost::shared_ptr<QuantLib::Observable>, boost::shared_ptr<QuantLib::Observable>, std::_Identity<boost::shared_ptr<QuantLib::Observable>>, std::less<boost::shared_ptr<QuantLib::Observable>>>::_Rb_tree_impl" = type { [8 x i8], %"struct.std::_Rb_tree_header" }
%"class.boost::detail::shared_count" = type { ptr }
%"class.QuantLib::Observable" = type { ptr, %"class.std::set.0" }
%"class.QuantLib::Handle" = type { %"class.boost::shared_ptr.16" }
%"class.boost::shared_ptr.16" = type { ptr, %"class.boost::detail::shared_count" }
%"class.QuantLib::Handle.17" = type { %"class.boost::shared_ptr.18" }
%"class.boost::shared_ptr.18" = type { ptr, %"class.boost::detail::shared_count" }
%"class.QuantLib::Handle.19" = type { %"class.boost::shared_ptr.20" }
%"class.boost::shared_ptr.20" = type { ptr, %"class.boost::detail::shared_count" }
%"class.QuantLib::VegaStressedBlackScholesProcess" = type { %"class.QuantLib::GeneralizedBlackScholesProcess.base", double, double, double, double, double }
%"class.QuantLib::GeneralizedBlackScholesProcess.base" = type <{ %"class.QuantLib::StochasticProcess1D", %"class.QuantLib::Handle", %"class.QuantLib::Handle.17", %"class.QuantLib::Handle.17", %"class.QuantLib::Handle.19", %"class.QuantLib::Handle.21", i8, i8, [6 x i8], %"class.QuantLib::RelinkableHandle", i8, i8 }>
%"class.QuantLib::StochasticProcess1D" = type { %"class.QuantLib::StochasticProcess", %"class.boost::shared_ptr.15" }
%"class.QuantLib::StochasticProcess" = type { %"class.QuantLib::Observer", %"class.QuantLib::Observable", %"class.boost::shared_ptr.14" }
%"class.QuantLib::Observer" = type { ptr, %"class.std::set" }
%"class.boost::shared_ptr.14" = type { ptr, %"class.boost::detail::shared_count" }
%"class.boost::shared_ptr.15" = type { ptr, %"class.boost::detail::shared_count" }
%"class.QuantLib::Handle.21" = type { %"class.boost::shared_ptr.22" }
%"class.boost::shared_ptr.22" = type { ptr, %"class.boost::detail::shared_count" }
%"class.QuantLib::RelinkableHandle" = type { %"class.QuantLib::Handle.21" }

; Function Attrs: mustprogress uwtable
define void @_ZN8QuantLib31VegaStressedBlackScholesProcess32setLowerAssetBorderForStressTestEd(ptr noundef nonnull align 8 dereferenceable(296) %this, double noundef %LAB) #2 align 2 {
entry:
  %this.addr = alloca ptr, align 8
  %LAB.addr = alloca double, align 8
  store ptr %this, ptr %this.addr, align 8, !tbaa !3
  store double %LAB, ptr %LAB.addr, align 8, !tbaa !12
  %this1 = load ptr, ptr %this.addr, align 8
  %0 = load double, ptr %LAB.addr, align 8, !tbaa !12
  %lowerAssetBorderForStressTest_ = getelementptr inbounds nuw %"class.QuantLib::VegaStressedBlackScholesProcess", ptr %this1, i32 0, i32 3
  store double %0, ptr %lowerAssetBorderForStressTest_, align 8, !tbaa !50
  %vtable = load ptr, ptr %this1, align 8, !tbaa !14
  %vfn = getelementptr inbounds ptr, ptr %vtable, i64 2
  %1 = load ptr, ptr %vfn, align 8
  call void %1(ptr noundef nonnull align 8 dereferenceable(250) %this1)
  ret void
}