; Function Attrs: mustprogress uwtable
define void @_ZN8QuantLib31VegaStressedBlackScholesProcess32setLowerAssetBorderForStressTestEd(ptr noundef nonnull align 8 dereferenceable(296) %this, double noundef %LAB) local_unnamed_addr #6 align 2 {
entry:
  %lowerAssetBorderForStressTest_ = getelementptr inbounds nuw i8, ptr %this, i64 272
  store double %LAB, ptr %lowerAssetBorderForStressTest_, align 8, !tbaa !60
  %vtable = load ptr, ptr %this, align 8, !tbaa !36
  %vfn = getelementptr inbounds i8, ptr %vtable, i64 16
  %0 = load ptr, ptr %vfn, align 8
  tail call void %0(ptr noundef nonnull align 8 dereferenceable(250) %this)
  ret void
}